target datalayout = "e-m:e-p270:32:32-p271:32:32-p272:64:64-i64:64-i128:128-f80:128-n8:16:32:64-S128"
target triple = "x86_64-pc-linux-gnu"

; Function Attrs: mustprogress nounwind willreturn memory(read) uwtable
define dso_local noundef i32 @_ZN4llvm7AArch6415getSVEPseudoMapEt(i16 noundef zeroext %0) #8 {
  %2 = alloca i32, align 4
  %3 = alloca i16, align 2
  %4 = alloca i32, align 4
  %5 = alloca i32, align 4
  %6 = alloca i32, align 4
  store i16 %0, ptr %3, align 2
  store i32 0, ptr %5, align 4
  store i32 434, ptr %6, align 4
  br label %7

7:                                                ; preds = %43, %1
  %8 = load i32, ptr %5, align 4
  %9 = load i32, ptr %6, align 4
  %10 = icmp ult i32 %8, %9
  br i1 %10, label %11, label %44

11:                                               ; preds = %7
  %12 = load i32, ptr %5, align 4
  %13 = load i32, ptr %6, align 4
  %14 = load i32, ptr %5, align 4
  %15 = sub i32 %13, %14
  %16 = udiv i32 %15, 2
  %17 = add i32 %12, %16
  store i32 %17, ptr %4, align 4
  %18 = load i16, ptr %3, align 2
  %19 = zext i16 %18 to i32
  %20 = load i32, ptr %4, align 4
  %21 = zext i32 %20 to i64
  %22 = getelementptr inbounds [434 x [2 x i16]], ptr @_ZZN4llvm7AArch6415getSVEPseudoMapEtE20getSVEPseudoMapTable, i64 0, i64 %21
  %23 = getelementptr inbounds [2 x i16], ptr %22, i64 0, i64 0
  %24 = load i16, ptr %23, align 4
  %25 = zext i16 %24 to i32
  %26 = icmp eq i32 %19, %25
  br i1 %26, label %27, label %28

27:                                               ; preds = %11
  br label %44

28:                                               ; preds = %11
  %29 = load i16, ptr %3, align 2
  %30 = zext i16 %29 to i32
  %31 = load i32, ptr %4, align 4
  %32 = zext i32 %31 to i64
  %33 = getelementptr inbounds [434 x [2 x i16]], ptr @_ZZN4llvm7AArch6415getSVEPseudoMapEtE20getSVEPseudoMapTable, i64 0, i64 %32
  %34 = getelementptr inbounds [2 x i16], ptr %33, i64 0, i64 0
  %35 = load i16, ptr %34, align 4
  %36 = zext i16 %35 to i32
  %37 = icmp slt i32 %30, %36
  br i1 %37, label %38, label %40

38:                                               ; preds = %28
  %39 = load i32, ptr %4, align 4
  store i32 %39, ptr %6, align 4
  br label %43

40:                                               ; preds = %28
  %41 = load i32, ptr %4, align 4
  %42 = add i32 %41, 1
  store i32 %42, ptr %5, align 4
  br label %43

43:                                               ; preds = %40, %38
  br label %7, !llvm.loop !24

44:                                               ; preds = %27, %7
  %45 = load i32, ptr %5, align 4
  %46 = load i32, ptr %6, align 4
  %47 = icmp eq i32 %45, %46
  br i1 %47, label %48, label %49

48:                                               ; preds = %44
  store i32 -1, ptr %2, align 4
  br label %56

49:                                               ; preds = %44
  %50 = load i32, ptr %4, align 4
  %51 = zext i32 %50 to i64
  %52 = getelementptr inbounds [434 x [2 x i16]], ptr @_ZZN4llvm7AArch6415getSVEPseudoMapEtE20getSVEPseudoMapTable, i64 0, i64 %51
  %53 = getelementptr inbounds [2 x i16], ptr %52, i64 0, i64 1
  %54 = load i16, ptr %53, align 2
  %55 = zext i16 %54 to i32
  store i32 %55, ptr %2, align 4
  br label %56

56:                                               ; preds = %49, %48
  %57 = load i32, ptr %2, align 4
  ret i32 %57
}