; Function Attrs: mustprogress nofree norecurse nosync nounwind willreturn memory(none) uwtable
define dso_local noundef range(i32 -1, 65536) i32 @_ZN4llvm7AArch6415getSVEPseudoMapEt(i16 noundef zeroext %0) local_unnamed_addr #7 {
  br label %2

2:                                                ; preds = %1, %10
  %.023 = phi i32 [ 434, %1 ], [ %.1, %10 ]
  %.01522 = phi i32 [ 0, %1 ], [ %.116, %10 ]
  %3 = sub nuw i32 %.023, %.01522
  %4 = lshr i32 %3, 1
  %5 = add i32 %4, %.01522
  %6 = zext i32 %5 to i64
  %7 = getelementptr inbounds [434 x [2 x i16]], ptr @_ZZN4llvm7AArch6415getSVEPseudoMapEtE20getSVEPseudoMapTable, i64 0, i64 %6
  %8 = load i16, ptr %7, align 4
  %9 = icmp eq i16 %0, %8
  br i1 %9, label %14, label %10

10:                                               ; preds = %2
  %11 = icmp ult i16 %0, %8
  %12 = add i32 %5, 1
  %.116 = select i1 %11, i32 %.01522, i32 %12
  %.1 = select i1 %11, i32 %5, i32 %.023
  %13 = icmp ult i32 %.116, %.1
  br i1 %13, label %2, label %14, !llvm.loop !1031

14:                                               ; preds = %2, %10
  %.015.lcssa = phi i32 [ %.01522, %2 ], [ %.116, %10 ]
  %.0.lcssa = phi i32 [ %.023, %2 ], [ %.1, %10 ]
  %15 = icmp eq i32 %.015.lcssa, %.0.lcssa
  br i1 %15, label %20, label %16

16:                                               ; preds = %14
  %17 = getelementptr inbounds [434 x [2 x i16]], ptr @_ZZN4llvm7AArch6415getSVEPseudoMapEtE20getSVEPseudoMapTable, i64 0, i64 %6, i64 1
  %18 = load i16, ptr %17, align 2
  %19 = zext i16 %18 to i32
  br label %20

20:                                               ; preds = %14, %16
  %.019 = phi i32 [ %19, %16 ], [ -1, %14 ]
  ret i32 %.019
}